target datalayout = "e-m:e-p270:32:32-p271:32:32-p272:64:64-i64:64-i128:128-f80:128-n8:16:32:64-S128"
target triple = "x86_64-pc-linux-gnu"

%struct.HeapTupleHeaderData = type { %union.anon, %struct.ItemPointerData, i16, i16, i8, [0 x i8] }
%union.anon = type { %struct.HeapTupleFields }
%struct.HeapTupleFields = type { i32, i32, %union.anon.0 }
%union.anon.0 = type { i32 }
%struct.ItemPointerData = type { %struct.BlockIdData, i16 }
%struct.BlockIdData = type { i16, i16 }

; Function Attrs: inlinehint nounwind uwtable
define internal void @SetHintBits(ptr noundef %0, i32 noundef %1, i16 noundef zeroext %2, i32 noundef %3) #1 {
  %5 = alloca ptr, align 8
  %6 = alloca i32, align 4
  %7 = alloca i16, align 2
  %8 = alloca i32, align 4
  %9 = alloca i64, align 8
  %10 = alloca i32, align 4
  store ptr %0, ptr %5, align 8
  store i32 %1, ptr %6, align 4
  store i16 %2, ptr %7, align 2
  store i32 %3, ptr %8, align 4
  %11 = load i32, ptr %8, align 4
  %12 = icmp ne i32 %11, 0
  br i1 %12, label %13, label %31

13:                                               ; preds = %4
  call void @llvm.lifetime.start.p0(i64 8, ptr %9) #4
  %14 = load i32, ptr %8, align 4
  %15 = call i64 @TransactionIdGetCommitLSN(i32 noundef %14)
  store i64 %15, ptr %9, align 8
  %16 = load i32, ptr %6, align 4
  %17 = call zeroext i1 @BufferIsPermanent(i32 noundef %16)
  br i1 %17, label %18, label %27

18:                                               ; preds = %13
  %19 = load i64, ptr %9, align 8
  %20 = call zeroext i1 @XLogNeedsFlush(i64 noundef %19)
  br i1 %20, label %21, label %27

21:                                               ; preds = %18
  %22 = load i32, ptr %6, align 4
  %23 = call i64 @BufferGetLSNAtomic(i32 noundef %22)
  %24 = load i64, ptr %9, align 8
  %25 = icmp ult i64 %23, %24
  br i1 %25, label %26, label %27

26:                                               ; preds = %21
  store i32 1, ptr %10, align 4
  br label %28

27:                                               ; preds = %21, %18, %13
  store i32 0, ptr %10, align 4
  br label %28

28:                                               ; preds = %27, %26
  call void @llvm.lifetime.end.p0(i64 8, ptr %9) #4
  %29 = load i32, ptr %10, align 4
  switch i32 %29, label %42 [
    i32 0, label %30
    i32 1, label %41
  ]

30:                                               ; preds = %28
  br label %31

31:                                               ; preds = %30, %4
  %32 = load i16, ptr %7, align 2
  %33 = zext i16 %32 to i32
  %34 = load ptr, ptr %5, align 8
  %35 = getelementptr inbounds nuw %struct.HeapTupleHeaderData, ptr %34, i32 0, i32 3
  %36 = load i16, ptr %35, align 4
  %37 = zext i16 %36 to i32
  %38 = or i32 %37, %33
  %39 = trunc i32 %38 to i16
  store i16 %39, ptr %35, align 4
  %40 = load i32, ptr %6, align 4
  call void @MarkBufferDirtyHint(i32 noundef %40, i1 noundef zeroext true)
  br label %41

41:                                               ; preds = %31, %28
  ret void

42:                                               ; preds = %28
  unreachable
}

; Function Attrs: nounwind uwtable
define dso_local void @HeapTupleSetHintBits(ptr noundef %0, i32 noundef %1, i16 noundef zeroext %2, i32 noundef %3) #0 {
  %5 = alloca ptr, align 8
  %6 = alloca i32, align 4
  %7 = alloca i16, align 2
  %8 = alloca i32, align 4
  store ptr %0, ptr %5, align 8
  store i32 %1, ptr %6, align 4
  store i16 %2, ptr %7, align 2
  store i32 %3, ptr %8, align 4
  %9 = load ptr, ptr %5, align 8
  %10 = load i32, ptr %6, align 4
  %11 = load i16, ptr %7, align 2
  %12 = load i32, ptr %8, align 4
  call void @SetHintBits(ptr noundef %9, i32 noundef %10, i16 noundef zeroext %11, i32 noundef %12)
  ret void
}