; Function Attrs: nounwind uwtable
define dso_local void @HeapTupleSetHintBits(ptr noundef captures(none) %0, i32 noundef %1, i16 noundef zeroext %2, i32 noundef %3) local_unnamed_addr #0 {
  %.not.i = icmp eq i32 %3, 0
  br i1 %.not.i, label %.thread.i, label %5

5:                                                ; preds = %4
  %6 = tail call i64 @TransactionIdGetCommitLSN(i32 noundef %3) #4
  %7 = tail call zeroext i1 @BufferIsPermanent(i32 noundef %1) #4
  br i1 %7, label %8, label %.thread.i

8:                                                ; preds = %5
  %9 = tail call zeroext i1 @XLogNeedsFlush(i64 noundef %6) #4
  br i1 %9, label %10, label %.thread.i

10:                                               ; preds = %8
  %11 = tail call i64 @BufferGetLSNAtomic(i32 noundef %1) #4
  %12 = icmp ult i64 %11, %6
  br i1 %12, label %SetHintBits.exit, label %.thread.i

.thread.i:                                        ; preds = %10, %8, %5, %4
  %13 = getelementptr inbounds nuw i8, ptr %0, i64 20
  %14 = load i16, ptr %13, align 4
  %15 = or i16 %14, %2
  store i16 %15, ptr %13, align 4
  tail call void @MarkBufferDirtyHint(i32 noundef %1, i1 noundef zeroext true) #4
  br label %SetHintBits.exit

SetHintBits.exit:                                 ; preds = %10, %.thread.i
  ret void
}